(dp1
S'files'
p2
(dp3
S'_user_john3209_VirtualEnv_cse491_env_lib_python2_7_site-packages_jinja2_compiler'
p4
(dp5
S'index'
p6
(dp7
S'html_filename'
p8
S'_user_john3209_VirtualEnv_cse491_env_lib_python2_7_site-packages_jinja2_compiler.html'
p9
sS'name'
p10
S'/user/john3209/VirtualEnv/cse491.env/lib/python2.7/site-packages/jinja2/compiler'
p11
sS'nums'
p12
ccopy_reg
_reconstructor
p13
(ccoverage.results
Numbers
p14
c__builtin__
object
p15
NtRp16
(dp17
S'n_files'
p18
I1
sS'n_branches'
p19
I0
sS'n_statements'
p20
I1030
sS'n_excluded'
p21
I0
sS'n_partial_branches'
p22
I0
sS'n_missing'
p23
I713
sS'n_missing_branches'
p24
I0
sbssS'hash'
p25
S'dq\xf4\xf5\xc4Q5~\xcb\xe7\x8e\x7fE\x19\xba\xcb'
p26
ssS'_user_john3209_VirtualEnv_cse491_env_lib_python2_7_site-packages_jinja2_environment'
p27
(dp28
g6
(dp29
g8
S'_user_john3209_VirtualEnv_cse491_env_lib_python2_7_site-packages_jinja2_environment.html'
p30
sg10
S'/user/john3209/VirtualEnv/cse491.env/lib/python2.7/site-packages/jinja2/environment'
p31
sg12
g13
(g14
g15
NtRp32
(dp33
g18
I1
sg19
I0
sg20
I488
sg21
I0
sg22
I0
sg23
I300
sg24
I0
sbssg25
S"\x93D`2\xa8\xe9\xd4M'\xc5E\x1f\xefp\x8b\xbf"
p34
ssS'_user_john3209_VirtualEnv_cse491_env_lib_python2_7_site-packages_nose_plugins_manager'
p35
(dp36
g6
(dp37
g8
S'_user_john3209_VirtualEnv_cse491_env_lib_python2_7_site-packages_nose_plugins_manager.html'
p38
sg10
S'/user/john3209/VirtualEnv/cse491.env/lib/python2.7/site-packages/nose/plugins/manager'
p39
sg12
g13
(g14
g15
NtRp40
(dp41
g18
I1
sg19
I0
sg20
I265
sg21
I0
sg22
I0
sg23
I234
sg24
I0
sbssg25
S"\x06\x86\xacD~?\xc2d\x08C\xd2'xe5\xf8"
p42
ssS'_user_john3209_VirtualEnv_cse491_env_lib_python2_7_site-packages_markupsafe___init__'
p43
(dp44
g6
(dp45
g8
S'_user_john3209_VirtualEnv_cse491_env_lib_python2_7_site-packages_markupsafe___init__.html'
p46
sg10
S'/user/john3209/VirtualEnv/cse491.env/lib/python2.7/site-packages/markupsafe/__init__'
p47
sg12
g13
(g14
g15
NtRp48
(dp49
g18
I1
sg19
I0
sg20
I112
sg21
I0
sg22
I0
sg23
I58
sg24
I0
sbssg25
S'4\x0c\xad\x16\xa7a\x86\xb4\x07\xack\x85\xc1\xe3\xd5\xd3'
p50
ssS'_user_john3209_VirtualEnv_cse491_env_lib_python2_7_site-packages_nose_core'
p51
(dp52
g6
(dp53
g8
S'_user_john3209_VirtualEnv_cse491_env_lib_python2_7_site-packages_nose_core.html'
p54
sg10
S'/user/john3209/VirtualEnv/cse491.env/lib/python2.7/site-packages/nose/core'
p55
sg12
g13
(g14
g15
NtRp56
(dp57
g18
I1
sg19
I0
sg20
I162
sg21
I0
sg22
I0
sg23
I140
sg24
I0
sbssg25
S'\x92\xc0\x98\xbb\xb98\xd2F\xc0\x06p\xc9\xd3\xe5\x1cP'
p58
ssS'_user_john3209_VirtualEnv_cse491_env_lib_python2_7_site-packages_nose_pyversion'
p59
(dp60
g6
(dp61
g8
S'_user_john3209_VirtualEnv_cse491_env_lib_python2_7_site-packages_nose_pyversion.html'
p62
sg10
S'/user/john3209/VirtualEnv/cse491.env/lib/python2.7/site-packages/nose/pyversion'
p63
sg12
g13
(g14
g15
NtRp64
(dp65
g18
I1
sg19
I0
sg20
I92
sg21
I0
sg22
I0
sg23
I88
sg24
I0
sbssg25
S'\xca^\x90\xcb%\xe3\xfdu\xf3\x85\x02?C\re\xa7'
p66
ssS'_user_john3209_VirtualEnv_cse491_env_lib_python2_7_site-packages_jinja2_runtime'
p67
(dp68
g6
(dp69
g8
S'_user_john3209_VirtualEnv_cse491_env_lib_python2_7_site-packages_jinja2_runtime.html'
p70
sg10
S'/user/john3209/VirtualEnv/cse491.env/lib/python2.7/site-packages/jinja2/runtime'
p71
sg12
g13
(g14
g15
NtRp72
(dp73
g18
I1
sg19
I0
sg20
I291
sg21
I0
sg22
I0
sg23
I175
sg24
I0
sbssg25
S'P\xedP6\xe1\x01Q\xf6zG\xbd\x077If\xf4'
p74
ssS'_user_john3209_VirtualEnv_cse491_env_lib_python2_7_site-packages_nose_plugins_cover'
p75
(dp76
g6
(dp77
g8
S'_user_john3209_VirtualEnv_cse491_env_lib_python2_7_site-packages_nose_plugins_cover.html'
p78
sg10
S'/user/john3209/VirtualEnv/cse491.env/lib/python2.7/site-packages/nose/plugins/cover'
p79
sg12
g13
(g14
g15
NtRp80
(dp81
g18
I1
sg19
I0
sg20
I138
sg21
I0
sg22
I0
sg23
I134
sg24
I0
sbssg25
S'WX\x92{\x8f\x10\xee\xbe\xb6d\xc4M\xe3O\x07\x91'
p82
ssS'_user_john3209_VirtualEnv_cse491_env_lib_python2_7_site-packages_nose_importer'
p83
(dp84
g6
(dp85
g8
S'_user_john3209_VirtualEnv_cse491_env_lib_python2_7_site-packages_nose_importer.html'
p86
sg10
S'/user/john3209/VirtualEnv/cse491.env/lib/python2.7/site-packages/nose/importer'
p87
sg12
g13
(g14
g15
NtRp88
(dp89
g18
I1
sg19
I0
sg20
I101
sg21
I0
sg22
I0
sg23
I53
sg24
I0
sbssg25
S'\x9d\xbe<\xcdi\xa6=`!\xf4mX\xd7\x1a/*'
p90
ssS'server'
p91
(dp92
g6
(dp93
g8
S'server.html'
p94
sg10
g91
sg12
g13
(g14
g15
NtRp95
(dp96
g18
I1
sg19
I0
sg20
I121
sg21
I0
sg22
I0
sg23
I26
sg24
I0
sbssg25
S'5\xa8\xb6\xe0^\xff\x1e9\xda]s\xc2\x88\x05\xae\xc7'
p97
ssS'_user_john3209_VirtualEnv_cse491_env_lib_python2_7_site-packages_nose_plugins_errorclass'
p98
(dp99
g6
(dp100
g8
S'_user_john3209_VirtualEnv_cse491_env_lib_python2_7_site-packages_nose_plugins_errorclass.html'
p101
sg10
S'/user/john3209/VirtualEnv/cse491.env/lib/python2.7/site-packages/nose/plugins/errorclass'
p102
sg12
g13
(g14
g15
NtRp103
(dp104
g18
I1
sg19
I0
sg20
I65
sg21
I0
sg22
I0
sg23
I59
sg24
I0
sbssg25
S'4\x13v=\xdeK!\x190-\xf5\x00\xcd\n\x80_'
p105
ssS'_user_john3209_VirtualEnv_cse491_env_lib_python2_7_site-packages_jinja2_parser'
p106
(dp107
g6
(dp108
g8
S'_user_john3209_VirtualEnv_cse491_env_lib_python2_7_site-packages_jinja2_parser.html'
p109
sg10
S'/user/john3209/VirtualEnv/cse491.env/lib/python2.7/site-packages/jinja2/parser'
p110
sg12
g13
(g14
g15
NtRp111
(dp112
g18
I1
sg19
I0
sg20
I646
sg21
I0
sg22
I0
sg23
I443
sg24
I0
sbssg25
S'\xa4\x0e&\xc9]\xdc\x16\xc8\x0b\x16\x16\xffv.\xc7\xf3'
p113
ssS'_user_john3209_VirtualEnv_cse491_env_lib_python2_7_site-packages_jinja2_optimizer'
p114
(dp115
g6
(dp116
g8
S'_user_john3209_VirtualEnv_cse491_env_lib_python2_7_site-packages_jinja2_optimizer.html'
p117
sg10
S'/user/john3209/VirtualEnv/cse491.env/lib/python2.7/site-packages/jinja2/optimizer'
p118
sg12
g13
(g14
g15
NtRp119
(dp120
g18
I1
sg19
I0
sg20
I31
sg21
I0
sg22
I0
sg23
I18
sg24
I0
sbssg25
S'gS\xcb\xe4\xa2\xf5}\x92\xfc\r\x8cd$\x84\x08T'
p121
ssS'_user_john3209_VirtualEnv_cse491_env_lib_python2_7_site-packages_jinja2_exceptions'
p122
(dp123
g6
(dp124
g8
S'_user_john3209_VirtualEnv_cse491_env_lib_python2_7_site-packages_jinja2_exceptions.html'
p125
sg10
S'/user/john3209/VirtualEnv/cse491.env/lib/python2.7/site-packages/jinja2/exceptions'
p126
sg12
g13
(g14
g15
NtRp127
(dp128
g18
I1
sg19
I0
sg20
I70
sg21
I0
sg22
I0
sg23
I47
sg24
I0
sbssg25
S'\xf3z\xf9\xb0i}\xb8\xf8a\x05\xda\n?\x1c\xfb\x1d'
p129
ssS'_user_john3209_VirtualEnv_cse491_env_lib_python2_7_site-packages_jinja2_visitor'
p130
(dp131
g6
(dp132
g8
S'_user_john3209_VirtualEnv_cse491_env_lib_python2_7_site-packages_jinja2_visitor.html'
p133
sg10
S'/user/john3209/VirtualEnv/cse491.env/lib/python2.7/site-packages/jinja2/visitor'
p134
sg12
g13
(g14
g15
NtRp135
(dp136
g18
I1
sg19
I0
sg20
I40
sg21
I0
sg22
I0
sg23
I11
sg24
I0
sbssg25
S'\xa3\xa6p\xb0\x1fq\x12\x14\xde4\x18?\x081\xaf\x15'
p137
ssS'_user_john3209_VirtualEnv_cse491_env_lib_python2_7_site-packages_nose_plugins_logcapture'
p138
(dp139
g6
(dp140
g8
S'_user_john3209_VirtualEnv_cse491_env_lib_python2_7_site-packages_nose_plugins_logcapture.html'
p141
sg10
S'/user/john3209/VirtualEnv/cse491.env/lib/python2.7/site-packages/nose/plugins/logcapture'
p142
sg12
g13
(g14
g15
NtRp143
(dp144
g18
I1
sg19
I0
sg20
I125
sg21
I0
sg22
I0
sg23
I114
sg24
I0
sbssg25
S'\xccN\xe6\x86\x88`\x1e\xb7\xeb\xf4\x14^\x8f\xa5-\xf2'
p145
ssS'_user_john3209_VirtualEnv_cse491_env_lib_python2_7_site-packages_nose_proxy'
p146
(dp147
g6
(dp148
g8
S'_user_john3209_VirtualEnv_cse491_env_lib_python2_7_site-packages_nose_proxy.html'
p149
sg10
S'/user/john3209/VirtualEnv/cse491.env/lib/python2.7/site-packages/nose/proxy'
p150
sg12
g13
(g14
g15
NtRp151
(dp152
g18
I1
sg19
I0
sg20
I108
sg21
I0
sg22
I0
sg23
I75
sg24
I0
sbssg25
S'\xa8?\x17\xc2j\xad\x13\xe7\x98w\xd3~\xe8\n\xc1\xe2'
p153
ssS'_user_john3209_VirtualEnv_cse491_env_lib_python2_7_site-packages_markupsafe__compat'
p154
(dp155
g6
(dp156
g8
S'_user_john3209_VirtualEnv_cse491_env_lib_python2_7_site-packages_markupsafe__compat.html'
p157
sg10
S'/user/john3209/VirtualEnv/cse491.env/lib/python2.7/site-packages/markupsafe/_compat'
p158
sg12
g13
(g14
g15
NtRp159
(dp160
g18
I1
sg19
I0
sg20
I12
sg21
I0
sg22
I0
sg23
I4
sg24
I0
sbssg25
S'\x8c\xb6\xc1\xcd\x85\x93\x83\xddWpn\xaaf\x8a2,'
p161
ssS'_user_john3209_VirtualEnv_cse491_env_lib_python2_7_site-packages_nose_selector'
p162
(dp163
g6
(dp164
g8
S'_user_john3209_VirtualEnv_cse491_env_lib_python2_7_site-packages_nose_selector.html'
p165
sg10
S'/user/john3209/VirtualEnv/cse491.env/lib/python2.7/site-packages/nose/selector'
p166
sg12
g13
(g14
g15
NtRp167
(dp168
g18
I1
sg19
I0
sg20
I134
sg21
I0
sg22
I0
sg23
I68
sg24
I0
sbssg25
S'\xfb\xe8\x1fq\xc1\xe8\x1d\xc0\x17/\x9e\x98\xc8\x04\xbf&'
p169
ssS'_user_john3209_VirtualEnv_cse491_env_lib_python2_7_site-packages_jinja2_filters'
p170
(dp171
g6
(dp172
g8
S'_user_john3209_VirtualEnv_cse491_env_lib_python2_7_site-packages_jinja2_filters.html'
p173
sg10
S'/user/john3209/VirtualEnv/cse491.env/lib/python2.7/site-packages/jinja2/filters'
p174
sg12
g13
(g14
g15
NtRp175
(dp176
g18
I1
sg19
I0
sg20
I343
sg21
I0
sg22
I0
sg23
I265
sg24
I0
sbssg25
S'\xef#\xc6\xad\x92\x96v^M\x9d\xf0\xfeR\xcal\xc5'
p177
ssS'_user_john3209_VirtualEnv_cse491_env_lib_python2_7_site-packages_jinja2__compat'
p178
(dp179
g6
(dp180
g8
S'_user_john3209_VirtualEnv_cse491_env_lib_python2_7_site-packages_jinja2__compat.html'
p181
sg10
S'/user/john3209/VirtualEnv/cse491.env/lib/python2.7/site-packages/jinja2/_compat'
p182
sg12
g13
(g14
g15
NtRp183
(dp184
g18
I1
sg19
I0
sg20
I98
sg21
I0
sg22
I0
sg23
I35
sg24
I0
sbssg25
S'@u\t\x99\xbd\xbah\xdc\xa2\x9a\x18b\x12T\x89\x93'
p185
ssS'_user_john3209_VirtualEnv_cse491_env_lib_python2_7_site-packages_jinja2___init__'
p186
(dp187
g6
(dp188
g8
S'_user_john3209_VirtualEnv_cse491_env_lib_python2_7_site-packages_jinja2___init__.html'
p189
sg10
S'/user/john3209/VirtualEnv/cse491.env/lib/python2.7/site-packages/jinja2/__init__'
p190
sg12
g13
(g14
g15
NtRp191
(dp192
g18
I1
sg19
I0
sg20
I11
sg21
I0
sg22
I0
sg23
I0
sg24
I0
sbssg25
S'\xc2$\x8d\x9e.l\x1b;A\t,G\xf5\xf12\x91'
p193
ssS'_user_john3209_VirtualEnv_cse491_env_lib_python2_7_site-packages_nose_suite'
p194
(dp195
g6
(dp196
g8
S'_user_john3209_VirtualEnv_cse491_env_lib_python2_7_site-packages_nose_suite.html'
p197
sg10
S'/user/john3209/VirtualEnv/cse491.env/lib/python2.7/site-packages/nose/suite'
p198
sg12
g13
(g14
g15
NtRp199
(dp200
g18
I1
sg19
I0
sg20
I394
sg21
I0
sg22
I0
sg23
I236
sg24
I0
sbssg25
S'd\x00\xf4\xb4)y\xaa\xed\xb1\x93C\xb5\xeb\x7f\xad\xd6'
p201
ssS'_user_john3209_VirtualEnv_cse491_env_lib_python2_7_site-packages_nose_case'
p202
(dp203
g6
(dp204
g8
S'_user_john3209_VirtualEnv_cse491_env_lib_python2_7_site-packages_nose_case.html'
p205
sg10
S'/user/john3209/VirtualEnv/cse491.env/lib/python2.7/site-packages/nose/case'
p206
sg12
g13
(g14
g15
NtRp207
(dp208
g18
I1
sg19
I0
sg20
I204
sg21
I0
sg22
I0
sg23
I163
sg24
I0
sbssg25
S'\xedk3\xdb{\xf7\x95\xec\xcf\x98\xf2\xad46\xa7\xae'
p209
ssS'_user_john3209_VirtualEnv_cse491_env_lib_python2_7_site-packages_jinja2_bccache'
p210
(dp211
g6
(dp212
g8
S'_user_john3209_VirtualEnv_cse491_env_lib_python2_7_site-packages_jinja2_bccache.html'
p213
sg10
S'/user/john3209/VirtualEnv/cse491.env/lib/python2.7/site-packages/jinja2/bccache'
p214
sg12
g13
(g14
g15
NtRp215
(dp216
g18
I1
sg19
I0
sg20
I143
sg21
I0
sg22
I0
sg23
I101
sg24
I0
sbssg25
S"\xc5\x0f'\xccc\xaf\xd1=|\xeey\xd9&\xf3>\x92"
p217
ssS'_user_john3209_VirtualEnv_cse491_env_lib_python2_7_site-packages_jinja2_defaults'
p218
(dp219
g6
(dp220
g8
S'_user_john3209_VirtualEnv_cse491_env_lib_python2_7_site-packages_jinja2_defaults.html'
p221
sg10
S'/user/john3209/VirtualEnv/cse491.env/lib/python2.7/site-packages/jinja2/defaults'
p222
sg12
g13
(g14
g15
NtRp223
(dp224
g18
I1
sg19
I0
sg20
I19
sg21
I0
sg22
I0
sg23
I0
sg24
I0
sbssg25
S'\xe2s1\x07\x11\xcc\xb8t@\xa5n<\x98\x97"j'
p225
ssS'_user_john3209_VirtualEnv_cse491_env_lib_python2_7_site-packages_nose_result'
p226
(dp227
g6
(dp228
g8
S'_user_john3209_VirtualEnv_cse491_env_lib_python2_7_site-packages_nose_result.html'
p229
sg10
S'/user/john3209/VirtualEnv/cse491.env/lib/python2.7/site-packages/nose/result'
p230
sg12
g13
(g14
g15
NtRp231
(dp232
g18
I1
sg19
I0
sg20
I131
sg21
I0
sg22
I0
sg23
I119
sg24
I0
sbssg25
S'\xbfT\xf7\xbd\xe5\x8b\xec~E\x94\xba\xbd\xd9\xcc\x84\x97'
p233
ssS'_user_john3209_VirtualEnv_cse491_env_lib_python2_7_site-packages_jinja2_tests'
p234
(dp235
g6
(dp236
g8
S'_user_john3209_VirtualEnv_cse491_env_lib_python2_7_site-packages_jinja2_tests.html'
p237
sg10
S'/user/john3209/VirtualEnv/cse491.env/lib/python2.7/site-packages/jinja2/tests'
p238
sg12
g13
(g14
g15
NtRp239
(dp240
g18
I1
sg19
I0
sg20
I47
sg21
I0
sg22
I0
sg23
I24
sg24
I0
sbssg25
S'\xb1[}x+R\x19\xd1\xe4\xc4\xf3\xcb"5\xe8\xfd'
p241
ssS'_user_john3209_VirtualEnv_cse491_env_lib_python2_7_site-packages_jinja2_loaders'
p242
(dp243
g6
(dp244
g8
S'_user_john3209_VirtualEnv_cse491_env_lib_python2_7_site-packages_jinja2_loaders.html'
p245
sg10
S'/user/john3209/VirtualEnv/cse491.env/lib/python2.7/site-packages/jinja2/loaders'
p246
sg12
g13
(g14
g15
NtRp247
(dp248
g18
I1
sg19
I0
sg20
I221
sg21
I0
sg22
I0
sg23
I138
sg24
I0
sbssg25
S'_\xee\xfbA\xd4\xf8J\x08L\x0c\xf6\xf9\xf8\xbc\xd9\xd8'
p249
ssS'_user_john3209_VirtualEnv_cse491_env_lib_python2_7_site-packages_nose_loader'
p250
(dp251
g6
(dp252
g8
S'_user_john3209_VirtualEnv_cse491_env_lib_python2_7_site-packages_nose_loader.html'
p253
sg10
S'/user/john3209/VirtualEnv/cse491.env/lib/python2.7/site-packages/nose/loader'
p254
sg12
g13
(g14
g15
NtRp255
(dp256
g18
I1
sg19
I0
sg20
I351
sg21
I0
sg22
I0
sg23
I235
sg24
I0
sbssg25
S'\x80\xc8\r\xe9\xfd\xbb\x94\xc2_\xcf=\xe9)\x9e(\xa7'
p257
ssS'_user_john3209_VirtualEnv_cse491_env_lib_python2_7_site-packages_jinja2_utils'
p258
(dp259
g6
(dp260
g8
S'_user_john3209_VirtualEnv_cse491_env_lib_python2_7_site-packages_jinja2_utils.html'
p261
sg10
S'/user/john3209/VirtualEnv/cse491.env/lib/python2.7/site-packages/jinja2/utils'
p262
sg12
g13
(g14
g15
NtRp263
(dp264
g18
I1
sg19
I0
sg20
I263
sg21
I0
sg22
I0
sg23
I166
sg24
I0
sbssg25
S'P\xab\x1c\xd0F,\x89_G\xf2o\x13\xa1|\xf4\xa8'
p265
ssS'_user_john3209_VirtualEnv_cse491_env_lib_python2_7_site-packages_jinja2_nodes'
p266
(dp267
g6
(dp268
g8
S'_user_john3209_VirtualEnv_cse491_env_lib_python2_7_site-packages_jinja2_nodes.html'
p269
sg10
S'/user/john3209/VirtualEnv/cse491.env/lib/python2.7/site-packages/jinja2/nodes'
p270
sg12
g13
(g14
g15
NtRp271
(dp272
g18
I1
sg19
I0
sg20
I423
sg21
I0
sg22
I0
sg23
I184
sg24
I0
sbssg25
S'\xd4A\r\xa1c\x04\xccb?\x89\xa5\xafm\xe9\xeca'
p273
ssS'_user_john3209_VirtualEnv_cse491_env_lib_python2_7_site-packages_nose_util'
p274
(dp275
g6
(dp276
g8
S'_user_john3209_VirtualEnv_cse491_env_lib_python2_7_site-packages_nose_util.html'
p277
sg10
S'/user/john3209/VirtualEnv/cse491.env/lib/python2.7/site-packages/nose/util'
p278
sg12
g13
(g14
g15
NtRp279
(dp280
g18
I1
sg19
I0
sg20
I341
sg21
I0
sg22
I0
sg23
I274
sg24
I0
sbssg25
S'WBA\xb2\xb9\xd8\x91A\t\xc5\xba\xfb$\xe6\x11\xe3'
p281
ssS'_user_john3209_VirtualEnv_cse491_env_lib_python2_7_site-packages_nose_plugins_capture'
p282
(dp283
g6
(dp284
g8
S'_user_john3209_VirtualEnv_cse491_env_lib_python2_7_site-packages_nose_plugins_capture.html'
p285
sg10
S'/user/john3209/VirtualEnv/cse491.env/lib/python2.7/site-packages/nose/plugins/capture'
p286
sg12
g13
(g14
g15
NtRp287
(dp288
g18
I1
sg19
I0
sg20
I66
sg21
I0
sg22
I0
sg23
I58
sg24
I0
sbssg25
S'A\x0b\x9b\xf8\x01]\x89\xc4!FIjJ\xc0\x9a\xd5'
p289
ssS'_user_john3209_VirtualEnv_cse491_env_lib_python2_7_site-packages_jinja2_lexer'
p290
(dp291
g6
(dp292
g8
S'_user_john3209_VirtualEnv_cse491_env_lib_python2_7_site-packages_jinja2_lexer.html'
p293
sg10
S'/user/john3209/VirtualEnv/cse491.env/lib/python2.7/site-packages/jinja2/lexer'
p294
sg12
g13
(g14
g15
NtRp295
(dp296
g18
I1
sg19
I0
sg20
I346
sg21
I0
sg22
I0
sg23
I107
sg24
I0
sbssg25
S',\xfco\xa1i\xf3\xc5q\xd8|\xab\xaf\x81\xf2\r\x81'
p297
ssS'test_server'
p298
(dp299
g6
(dp300
g8
S'test_server.html'
p301
sg10
g298
sg12
g13
(g14
g15
NtRp302
(dp303
g18
I1
sg19
I0
sg20
I69
sg21
I0
sg22
I0
sg23
I3
sg24
I0
sbssg25
S'\xe4J\xbb\x0f\xb1\x92\xd5\xd1L\xb7\xaa\xc9\x00\x92\x8a\xaf'
p304
sssS'version'
p305
S'3.7.1'
p306
sS'settings'
p307
S'\x98\xa8x\xfe"r\xb5K\x98\xb1N\\\x99\x9e\xf3\xe5'
p308
sS'format'
p309
I1
s.